target datalayout = "e-m:e-p270:32:32-p271:32:32-p272:64:64-i64:64-i128:128-f80:128-n8:16:32:64-S128"
target triple = "x86_64-pc-linux-gnu"

%"class.btInverseDynamicsBullet3::mat33" = type { %class.btMatrix3x3 }
%class.btMatrix3x3 = type { [3 x %class.btVector3] }
%class.btVector3 = type { [4 x float] }

; Function Attrs: inlinehint mustprogress nounwind uwtable
define linkonce_odr dso_local void @_ZN9btVector3C2Ev(ptr noundef nonnull align 4 dereferenceable(16) %0) unnamed_addr #4 comdat align 2 {
  %2 = alloca ptr, align 8
  store ptr %0, ptr %2, align 8, !tbaa !52
  ret void
}

; Function Attrs: inlinehint mustprogress nounwind uwtable
define linkonce_odr dso_local noundef ptr @_ZNK9btVector3cvPKfEv(ptr noundef nonnull align 4 dereferenceable(16) %0) #4 comdat align 2 {
  %2 = alloca ptr, align 8
  store ptr %0, ptr %2, align 8, !tbaa !52
  %3 = load ptr, ptr %2, align 8
  %4 = getelementptr inbounds nuw %class.btVector3, ptr %3, i32 0, i32 0
  %5 = getelementptr inbounds [4 x float], ptr %4, i64 0, i64 0
  ret ptr %5
}

; Function Attrs: inlinehint mustprogress nounwind uwtable
define linkonce_odr dso_local noundef ptr @_ZN9btVector3cvPfEv(ptr noundef nonnull align 4 dereferenceable(16) %0) #4 comdat align 2 {
  %2 = alloca ptr, align 8
  store ptr %0, ptr %2, align 8, !tbaa !52
  %3 = load ptr, ptr %2, align 8
  %4 = getelementptr inbounds nuw %class.btVector3, ptr %3, i32 0, i32 0
  %5 = getelementptr inbounds [4 x float], ptr %4, i64 0, i64 0
  ret ptr %5
}

; Function Attrs: inlinehint mustprogress nounwind uwtable
define linkonce_odr dso_local noundef nonnull align 4 dereferenceable(16) ptr @_ZN11btMatrix3x3ixEi(ptr noundef nonnull align 4 dereferenceable(48) %0, i32 noundef %1) #4 comdat align 2 {
  %3 = alloca ptr, align 8
  %4 = alloca i32, align 4
  store ptr %0, ptr %3, align 8, !tbaa !57
  store i32 %1, ptr %4, align 4, !tbaa !9
  %5 = load ptr, ptr %3, align 8
  %6 = getelementptr inbounds nuw %class.btMatrix3x3, ptr %5, i32 0, i32 0
  %7 = load i32, ptr %4, align 4, !tbaa !9
  %8 = sext i32 %7 to i64
  %9 = getelementptr inbounds [3 x %class.btVector3], ptr %6, i64 0, i64 %8
  ret ptr %9
}

; Function Attrs: mustprogress uwtable
define linkonce_odr dso_local void @_ZN11btMatrix3x3C2Ev(ptr noundef nonnull align 4 dereferenceable(48) %0) unnamed_addr #2 comdat align 2 {
  %2 = alloca ptr, align 8
  store ptr %0, ptr %2, align 8, !tbaa !57
  %3 = load ptr, ptr %2, align 8
  %4 = getelementptr inbounds nuw %class.btMatrix3x3, ptr %3, i32 0, i32 0
  %5 = getelementptr inbounds [3 x %class.btVector3], ptr %4, i32 0, i32 0
  %6 = getelementptr inbounds %class.btVector3, ptr %5, i64 3
  br label %7

7:                                                ; preds = %7, %1
  %8 = phi ptr [ %5, %1 ], [ %9, %7 ]
  call void @_ZN9btVector3C2Ev(ptr noundef nonnull align 4 dereferenceable(16) %8)
  %9 = getelementptr inbounds %class.btVector3, ptr %8, i64 1
  %10 = icmp eq ptr %9, %6
  br i1 %10, label %11, label %7

11:                                               ; preds = %7
  ret void
}

; Function Attrs: mustprogress uwtable
define linkonce_odr dso_local noundef nonnull align 4 dereferenceable(4) ptr @_ZNK24btInverseDynamicsBullet34vec3clEi(ptr noundef nonnull align 4 dereferenceable(16) %0, i32 noundef %1) #2 comdat align 2 {
  %3 = alloca ptr, align 8
  %4 = alloca i32, align 4
  store ptr %0, ptr %3, align 8, !tbaa !12
  store i32 %1, ptr %4, align 4, !tbaa !9
  %5 = load ptr, ptr %3, align 8
  %6 = call noundef ptr @_ZNK9btVector3cvPKfEv(ptr noundef nonnull align 4 dereferenceable(16) %5)
  %7 = load i32, ptr %4, align 4, !tbaa !9
  %8 = sext i32 %7 to i64
  %9 = getelementptr inbounds float, ptr %6, i64 %8
  ret ptr %9
}

; Function Attrs: mustprogress uwtable
define linkonce_odr dso_local noundef nonnull align 4 dereferenceable(4) ptr @_ZN24btInverseDynamicsBullet35mat33clEii(ptr noundef nonnull align 4 dereferenceable(48) %0, i32 noundef %1, i32 noundef %2) #2 comdat align 2 {
  %4 = alloca ptr, align 8
  %5 = alloca i32, align 4
  %6 = alloca i32, align 4
  store ptr %0, ptr %4, align 8, !tbaa !22
  store i32 %1, ptr %5, align 4, !tbaa !9
  store i32 %2, ptr %6, align 4, !tbaa !9
  %7 = load ptr, ptr %4, align 8
  %8 = load i32, ptr %5, align 4, !tbaa !9
  %9 = call noundef nonnull align 4 dereferenceable(16) ptr @_ZN11btMatrix3x3ixEi(ptr noundef nonnull align 4 dereferenceable(48) %7, i32 noundef %8)
  %10 = call noundef ptr @_ZN9btVector3cvPfEv(ptr noundef nonnull align 4 dereferenceable(16) %9)
  %11 = load i32, ptr %6, align 4, !tbaa !9
  %12 = sext i32 %11 to i64
  %13 = getelementptr inbounds float, ptr %10, i64 %12
  ret ptr %13
}

; Function Attrs: mustprogress uwtable
define linkonce_odr dso_local void @_ZN24btInverseDynamicsBullet35mat33C2Ev(ptr noundef nonnull align 4 dereferenceable(48) %0) unnamed_addr #2 comdat align 2 {
  %2 = alloca ptr, align 8
  store ptr %0, ptr %2, align 8, !tbaa !22
  %3 = load ptr, ptr %2, align 8
  call void @_ZN11btMatrix3x3C2Ev(ptr noundef nonnull align 4 dereferenceable(48) %3)
  ret void
}

; Function Attrs: mustprogress uwtable
define dso_local void @_ZN24btInverseDynamicsBullet313tildeOperatorERKNS_4vec3E(ptr dead_on_unwind noalias writable sret(%"class.btInverseDynamicsBullet3::mat33") align 4 %0, ptr noundef nonnull align 4 dereferenceable(16) %1) #2 {
  %3 = alloca ptr, align 8
  %4 = alloca ptr, align 8
  store ptr %0, ptr %3, align 8
  store ptr %1, ptr %4, align 8, !tbaa !12
  call void @_ZN24btInverseDynamicsBullet35mat33C2Ev(ptr noundef nonnull align 4 dereferenceable(48) %0)
  %5 = call noundef nonnull align 4 dereferenceable(4) ptr @_ZN24btInverseDynamicsBullet35mat33clEii(ptr noundef nonnull align 4 dereferenceable(48) %0, i32 noundef 0, i32 noundef 0)
  store float 0.000000e+00, ptr %5, align 4, !tbaa !14
  %6 = load ptr, ptr %4, align 8, !tbaa !12
  %7 = call noundef nonnull align 4 dereferenceable(4) ptr @_ZNK24btInverseDynamicsBullet34vec3clEi(ptr noundef nonnull align 4 dereferenceable(16) %6, i32 noundef 2)
  %8 = load float, ptr %7, align 4, !tbaa !14
  %9 = fneg float %8
  %10 = call noundef nonnull align 4 dereferenceable(4) ptr @_ZN24btInverseDynamicsBullet35mat33clEii(ptr noundef nonnull align 4 dereferenceable(48) %0, i32 noundef 0, i32 noundef 1)
  store float %9, ptr %10, align 4, !tbaa !14
  %11 = load ptr, ptr %4, align 8, !tbaa !12
  %12 = call noundef nonnull align 4 dereferenceable(4) ptr @_ZNK24btInverseDynamicsBullet34vec3clEi(ptr noundef nonnull align 4 dereferenceable(16) %11, i32 noundef 1)
  %13 = load float, ptr %12, align 4, !tbaa !14
  %14 = call noundef nonnull align 4 dereferenceable(4) ptr @_ZN24btInverseDynamicsBullet35mat33clEii(ptr noundef nonnull align 4 dereferenceable(48) %0, i32 noundef 0, i32 noundef 2)
  store float %13, ptr %14, align 4, !tbaa !14
  %15 = load ptr, ptr %4, align 8, !tbaa !12
  %16 = call noundef nonnull align 4 dereferenceable(4) ptr @_ZNK24btInverseDynamicsBullet34vec3clEi(ptr noundef nonnull align 4 dereferenceable(16) %15, i32 noundef 2)
  %17 = load float, ptr %16, align 4, !tbaa !14
  %18 = call noundef nonnull align 4 dereferenceable(4) ptr @_ZN24btInverseDynamicsBullet35mat33clEii(ptr noundef nonnull align 4 dereferenceable(48) %0, i32 noundef 1, i32 noundef 0)
  store float %17, ptr %18, align 4, !tbaa !14
  %19 = call noundef nonnull align 4 dereferenceable(4) ptr @_ZN24btInverseDynamicsBullet35mat33clEii(ptr noundef nonnull align 4 dereferenceable(48) %0, i32 noundef 1, i32 noundef 1)
  store float 0.000000e+00, ptr %19, align 4, !tbaa !14
  %20 = load ptr, ptr %4, align 8, !tbaa !12
  %21 = call noundef nonnull align 4 dereferenceable(4) ptr @_ZNK24btInverseDynamicsBullet34vec3clEi(ptr noundef nonnull align 4 dereferenceable(16) %20, i32 noundef 0)
  %22 = load float, ptr %21, align 4, !tbaa !14
  %23 = fneg float %22
  %24 = call noundef nonnull align 4 dereferenceable(4) ptr @_ZN24btInverseDynamicsBullet35mat33clEii(ptr noundef nonnull align 4 dereferenceable(48) %0, i32 noundef 1, i32 noundef 2)
  store float %23, ptr %24, align 4, !tbaa !14
  %25 = load ptr, ptr %4, align 8, !tbaa !12
  %26 = call noundef nonnull align 4 dereferenceable(4) ptr @_ZNK24btInverseDynamicsBullet34vec3clEi(ptr noundef nonnull align 4 dereferenceable(16) %25, i32 noundef 1)
  %27 = load float, ptr %26, align 4, !tbaa !14
  %28 = fneg float %27
  %29 = call noundef nonnull align 4 dereferenceable(4) ptr @_ZN24btInverseDynamicsBullet35mat33clEii(ptr noundef nonnull align 4 dereferenceable(48) %0, i32 noundef 2, i32 noundef 0)
  store float %28, ptr %29, align 4, !tbaa !14
  %30 = load ptr, ptr %4, align 8, !tbaa !12
  %31 = call noundef nonnull align 4 dereferenceable(4) ptr @_ZNK24btInverseDynamicsBullet34vec3clEi(ptr noundef nonnull align 4 dereferenceable(16) %30, i32 noundef 0)
  %32 = load float, ptr %31, align 4, !tbaa !14
  %33 = call noundef nonnull align 4 dereferenceable(4) ptr @_ZN24btInverseDynamicsBullet35mat33clEii(ptr noundef nonnull align 4 dereferenceable(48) %0, i32 noundef 2, i32 noundef 1)
  store float %32, ptr %33, align 4, !tbaa !14
  %34 = call noundef nonnull align 4 dereferenceable(4) ptr @_ZN24btInverseDynamicsBullet35mat33clEii(ptr noundef nonnull align 4 dereferenceable(48) %0, i32 noundef 2, i32 noundef 2)
  store float 0.000000e+00, ptr %34, align 4, !tbaa !14
  ret void
}