; Function Attrs: mustprogress nofree norecurse nosync nounwind willreturn memory(argmem: readwrite) uwtable
define dso_local void @_ZN24btInverseDynamicsBullet313tildeOperatorERKNS_4vec3E(ptr dead_on_unwind noalias writable writeonly sret(%"class.btInverseDynamicsBullet3::mat33") align 4 captures(none) initializes((0, 12), (16, 28), (32, 44)) %0, ptr noundef nonnull readonly align 4 captures(none) dereferenceable(16) %1) local_unnamed_addr #2 {
  store float 0.000000e+00, ptr %0, align 4, !tbaa !4
  %3 = getelementptr inbounds nuw i8, ptr %1, i64 8
  %4 = load float, ptr %3, align 4, !tbaa !4
  %5 = fneg float %4
  %6 = getelementptr inbounds nuw i8, ptr %0, i64 4
  store float %5, ptr %6, align 4, !tbaa !4
  %7 = getelementptr inbounds nuw i8, ptr %1, i64 4
  %8 = load float, ptr %7, align 4, !tbaa !4
  %9 = getelementptr inbounds nuw i8, ptr %0, i64 8
  store float %8, ptr %9, align 4, !tbaa !4
  %10 = getelementptr inbounds nuw i8, ptr %0, i64 16
  store float %4, ptr %10, align 4, !tbaa !4
  %11 = getelementptr inbounds nuw i8, ptr %0, i64 20
  store float 0.000000e+00, ptr %11, align 4, !tbaa !4
  %12 = load float, ptr %1, align 4, !tbaa !4
  %13 = fneg float %12
  %14 = getelementptr inbounds nuw i8, ptr %0, i64 24
  store float %13, ptr %14, align 4, !tbaa !4
  %15 = fneg float %8
  %16 = getelementptr inbounds nuw i8, ptr %0, i64 32
  store float %15, ptr %16, align 4, !tbaa !4
  %17 = getelementptr inbounds nuw i8, ptr %0, i64 36
  store float %12, ptr %17, align 4, !tbaa !4
  %18 = getelementptr inbounds nuw i8, ptr %0, i64 40
  store float 0.000000e+00, ptr %18, align 4, !tbaa !4
  ret void
}